; Function Attrs: nounwind uwtable
define i32 @HUF_optimalTableLog(i32 noundef %0, i64 noundef %1, i32 noundef %2, ptr noundef %3, i64 noundef %4, ptr noundef captures(none) %5, ptr noundef readonly captures(none) %6, i32 noundef %7) local_unnamed_addr #2 {
  %9 = and i32 %7, 2
  %.not = icmp eq i32 %9, 0
  br i1 %.not, label %10, label %12

10:                                               ; preds = %8
  %11 = tail call i32 @FSE_optimalTableLog_internal(i32 noundef %0, i64 noundef %1, i32 noundef %2, i32 noundef 1) #14
  br label %.loopexit

12:                                               ; preds = %8
  %13 = getelementptr inbounds nuw i8, ptr %3, i64 748
  %14 = add i64 %4, -748
  %15 = add i32 %2, 1
  %.not9.i = icmp eq i32 %15, 0
  br i1 %.not9.i, label %.lr.ph.split.us.preheader, label %.lr.ph.preheader.i

.lr.ph.preheader.i:                               ; preds = %12
  %wide.trip.count.i = zext i32 %15 to i64
  br label %.lr.ph.i

.lr.ph.i:                                         ; preds = %.lr.ph.i, %.lr.ph.preheader.i
  %indvars.iv.i = phi i64 [ 0, %.lr.ph.preheader.i ], [ %indvars.iv.next.i, %.lr.ph.i ]
  %.067.i = phi i32 [ 0, %.lr.ph.preheader.i ], [ %spec.select.i, %.lr.ph.i ]
  %16 = getelementptr inbounds nuw i32, ptr %6, i64 %indvars.iv.i
  %17 = load i32, ptr %16, align 4, !tbaa !11
  %.not.i = icmp ne i32 %17, 0
  %18 = zext i1 %.not.i to i32
  %spec.select.i = add i32 %.067.i, %18
  %indvars.iv.next.i = add nuw nsw i64 %indvars.iv.i, 1
  %exitcond.not.i = icmp eq i64 %indvars.iv.next.i, %wide.trip.count.i
  br i1 %exitcond.not.i, label %HUF_cardinality.exit, label %.lr.ph.i, !llvm.loop !57

HUF_cardinality.exit:                             ; preds = %.lr.ph.i
  %19 = tail call range(i32 0, 32) i32 @llvm.ctlz.i32(i32 %spec.select.i, i1 true)
  %20 = sub nuw nsw i32 32, %19
  %.not5370 = icmp ugt i32 %20, %0
  br i1 %.not5370, label %.loopexit, label %.lr.ph

.lr.ph:                                           ; preds = %HUF_cardinality.exit
  %21 = getelementptr inbounds nuw i8, ptr %5, i64 8
  %.not10.i = icmp slt i32 %2, 0
  %wide.trip.count.i58 = zext i32 %15 to i64
  br i1 %.not10.i, label %.lr.ph.split.us.preheader, label %.lr.ph.split

.lr.ph.split.us.preheader:                        ; preds = %12, %.lr.ph
  %22 = phi i32 [ %20, %.lr.ph ], [ poison, %12 ]
  br label %.lr.ph.split.us

.lr.ph.split.us:                                  ; preds = %.lr.ph.split.us.preheader, %.thread67.us
  %.04673.us = phi i32 [ %37, %.thread67.us ], [ %22, %.lr.ph.split.us.preheader ]
  %.04772.us = phi i32 [ %.1.us, %.thread67.us ], [ %0, %.lr.ph.split.us.preheader ]
  %.04871.us = phi i64 [ %.149.us, %.thread67.us ], [ -2, %.lr.ph.split.us.preheader ]
  %23 = tail call i64 @HUF_buildCTable_wksp(ptr noundef %5, ptr noundef %6, i32 noundef %2, i32 noundef %.04673.us, ptr noundef %3, i64 noundef %4)
  %24 = icmp ult i64 %23, -119
  br i1 %24, label %25, label %.thread67.us

25:                                               ; preds = %.lr.ph.split.us
  %26 = zext i32 %.04673.us to i64
  %27 = icmp samesign ult i64 %23, %26
  %28 = icmp ugt i32 %.04673.us, %22
  %or.cond.us = and i1 %27, %28
  br i1 %or.cond.us, label %.loopexit, label %29

29:                                               ; preds = %25
  %30 = trunc nsw i64 %23 to i32
  %31 = tail call i64 @HUF_writeCTable_wksp(ptr noundef nonnull %13, i64 noundef %14, ptr noundef %5, i32 noundef %2, i32 noundef %30, ptr noundef %3, i64 noundef %4)
  %32 = icmp ult i64 %31, -119
  br i1 %32, label %HUF_estimateCompressedSize.exit.us, label %.thread67.us

HUF_estimateCompressedSize.exit.us:               ; preds = %29
  %33 = add nuw i64 %.04871.us, 1
  %34 = icmp ugt i64 %31, %33
  br i1 %34, label %.loopexit, label %35

35:                                               ; preds = %HUF_estimateCompressedSize.exit.us
  %36 = icmp ult i64 %31, %.04871.us
  %spec.select.us = tail call i64 @llvm.umin.i64(i64 %31, i64 %.04871.us)
  %spec.select56.us = select i1 %36, i32 %.04673.us, i32 %.04772.us
  br label %.thread67.us

.thread67.us:                                     ; preds = %35, %29, %.lr.ph.split.us
  %.149.us = phi i64 [ %.04871.us, %29 ], [ %spec.select.us, %35 ], [ %.04871.us, %.lr.ph.split.us ]
  %.1.us = phi i32 [ %.04772.us, %29 ], [ %spec.select56.us, %35 ], [ %.04772.us, %.lr.ph.split.us ]
  %37 = add i32 %.04673.us, 1
  %.not53.us = icmp ugt i32 %37, %0
  br i1 %.not53.us, label %.loopexit, label %.lr.ph.split.us, !llvm.loop !58

.lr.ph.split:                                     ; preds = %.lr.ph, %.thread67
  %.04673 = phi i32 [ %62, %.thread67 ], [ %20, %.lr.ph ]
  %.04772 = phi i32 [ %.1, %.thread67 ], [ %0, %.lr.ph ]
  %.04871 = phi i64 [ %.149, %.thread67 ], [ -2, %.lr.ph ]
  %38 = tail call i64 @HUF_buildCTable_wksp(ptr noundef %5, ptr noundef %6, i32 noundef %2, i32 noundef %.04673, ptr noundef %3, i64 noundef %4)
  %39 = icmp ult i64 %38, -119
  br i1 %39, label %40, label %.thread67

40:                                               ; preds = %.lr.ph.split
  %41 = zext i32 %.04673 to i64
  %42 = icmp samesign ult i64 %38, %41
  %43 = icmp ugt i32 %.04673, %20
  %or.cond = and i1 %42, %43
  br i1 %or.cond, label %.loopexit, label %44

44:                                               ; preds = %40
  %45 = trunc nsw i64 %38 to i32
  %46 = tail call i64 @HUF_writeCTable_wksp(ptr noundef nonnull %13, i64 noundef %14, ptr noundef %5, i32 noundef %2, i32 noundef %45, ptr noundef %3, i64 noundef %4)
  %47 = icmp ult i64 %46, -119
  br i1 %47, label %.lr.ph.i59, label %.thread67

.lr.ph.i59:                                       ; preds = %44, %.lr.ph.i59
  %indvars.iv.i60 = phi i64 [ %indvars.iv.next.i61, %.lr.ph.i59 ], [ 0, %44 ]
  %.0911.i = phi i64 [ %55, %.lr.ph.i59 ], [ 0, %44 ]
  %48 = getelementptr inbounds nuw i64, ptr %21, i64 %indvars.iv.i60
  %49 = load i64, ptr %48, align 8, !tbaa !8
  %50 = and i64 %49, 255
  %51 = getelementptr inbounds nuw i32, ptr %6, i64 %indvars.iv.i60
  %52 = load i32, ptr %51, align 4, !tbaa !11
  %53 = zext i32 %52 to i64
  %54 = mul nuw nsw i64 %50, %53
  %55 = add i64 %54, %.0911.i
  %indvars.iv.next.i61 = add nuw nsw i64 %indvars.iv.i60, 1
  %exitcond.not.i62 = icmp eq i64 %indvars.iv.next.i61, %wide.trip.count.i58
  br i1 %exitcond.not.i62, label %._crit_edge.loopexit.i, label %.lr.ph.i59, !llvm.loop !50

._crit_edge.loopexit.i:                           ; preds = %.lr.ph.i59
  %56 = lshr i64 %55, 3
  %57 = add i64 %56, %46
  %58 = add nuw i64 %.04871, 1
  %59 = icmp ugt i64 %57, %58
  br i1 %59, label %.loopexit, label %60

60:                                               ; preds = %._crit_edge.loopexit.i
  %61 = icmp ult i64 %57, %.04871
  %spec.select = tail call i64 @llvm.umin.i64(i64 %57, i64 %.04871)
  %spec.select56 = select i1 %61, i32 %.04673, i32 %.04772
  br label %.thread67

.thread67:                                        ; preds = %.lr.ph.split, %60, %44
  %.149 = phi i64 [ %.04871, %44 ], [ %spec.select, %60 ], [ %.04871, %.lr.ph.split ]
  %.1 = phi i32 [ %.04772, %44 ], [ %spec.select56, %60 ], [ %.04772, %.lr.ph.split ]
  %62 = add i32 %.04673, 1
  %.not53 = icmp ugt i32 %62, %0
  br i1 %.not53, label %.loopexit, label %.lr.ph.split, !llvm.loop !58

.loopexit:                                        ; preds = %._crit_edge.loopexit.i, %.thread67, %40, %HUF_estimateCompressedSize.exit.us, %.thread67.us, %25, %HUF_cardinality.exit, %10
  %.045 = phi i32 [ %11, %10 ], [ %0, %HUF_cardinality.exit ], [ %.04772.us, %HUF_estimateCompressedSize.exit.us ], [ %.1.us, %.thread67.us ], [ %.04772.us, %25 ], [ %.04772, %._crit_edge.loopexit.i ], [ %.1, %.thread67 ], [ %.04772, %40 ]
  ret i32 %.045
}